; Function Attrs: mustprogress uwtable
define void @_ZN3gmx11QMMMOptions18processTprFilenameERKNS_18MdRunInputFilenameE(ptr noundef nonnull align 8 dereferenceable(824) %0, ptr noundef nonnull align 8 dereferenceable(32) %1) local_unnamed_addr #0 align 2 personality ptr @__gxx_personality_v0 {
  %3 = alloca %"class.std::allocator.0", align 1
  %4 = alloca %"class.std::__cxx11::basic_string", align 8
  %5 = alloca %"class.std::filesystem::__cxx11::path", align 8
  %6 = alloca %"class.std::filesystem::__cxx11::path", align 8
  %7 = alloca %"class.std::filesystem::__cxx11::path", align 8
  %8 = getelementptr inbounds i8, ptr %0, i64 504
  %9 = load i8, ptr %8, align 8
  %10 = trunc i8 %9 to i1
  br i1 %10, label %11, label %35

11:                                               ; preds = %2
  %12 = tail call noundef zeroext i1 @_ZNKSt7__cxx1112basic_stringIcSt11char_traitsIcESaIcEE5emptyEv(ptr noundef nonnull align 8 dereferenceable(32) %1) #23
  br i1 %12, label %13, label %14

13:                                               ; preds = %11
  tail call void @_ZN3gmx8internal13assertHandlerEPKcS2_S2_S2_i(ptr noundef nonnull @.str.150, ptr noundef nonnull @.str.151, ptr noundef nonnull @"__PRETTY_FUNCTION__._ZZN3gmx11QMMMOptions18processTprFilenameERKNS_18MdRunInputFilenameEENK3$_0clEv", ptr noundef nonnull @.str.147, i32 noundef 301) #27
  unreachable

14:                                               ; preds = %11
  %15 = getelementptr inbounds i8, ptr %0, i64 624
  %16 = tail call noundef zeroext i1 @_ZNKSt7__cxx1112basic_stringIcSt11char_traitsIcESaIcEE5emptyEv(ptr noundef nonnull align 8 dereferenceable(32) %15) #23
  br i1 %16, label %17, label %35

17:                                               ; preds = %14
  call void @_ZNSt10filesystem7__cxx114pathC2INSt7__cxx1112basic_stringIcSt11char_traitsIcESaIcEEES1_EERKT_NS1_6formatE(ptr noundef nonnull align 8 dereferenceable(40) %7, ptr noundef nonnull align 8 dereferenceable(32) %1, i8 noundef zeroext 2)
  invoke void @_ZNKSt10filesystem7__cxx114path8filenameEv(ptr dead_on_unwind nonnull writable sret(%"class.std::filesystem::__cxx11::path") align 8 %6, ptr noundef nonnull align 8 dereferenceable(40) %7)
          to label %18 unwind label %36

18:                                               ; preds = %17
  invoke void @_ZN3gmx14stripExtensionERKNSt10filesystem7__cxx114pathE(ptr dead_on_unwind nonnull writable sret(%"class.std::filesystem::__cxx11::path") align 8 %5, ptr noundef nonnull align 8 dereferenceable(40) %6)
          to label %19 unwind label %38

19:                                               ; preds = %18
  invoke void @_ZNSt10filesystem7__cxx114path9_M_appendESt17basic_string_viewIcSt11char_traitsIcEE(ptr noundef nonnull align 8 dereferenceable(40) %5, i64 5, ptr nonnull @.str.149)
          to label %_ZNSt10filesystem7__cxx114path6appendIA6_cEERNSt9enable_ifIX13__is_path_srcIT_EES1_E4typeERKS5_.exit unwind label %40

_ZNSt10filesystem7__cxx114path6appendIA6_cEERNSt9enable_ifIX13__is_path_srcIT_EES1_E4typeERKS5_.exit: ; preds = %19
  call void @llvm.lifetime.start.p0(i64 1, ptr nonnull %3)
  call void @_ZNSaIcEC1Ev(ptr noundef nonnull align 1 dereferenceable(1) %3) #23, !noalias !107
  %20 = call noundef ptr @_ZNKSt7__cxx1112basic_stringIcSt11char_traitsIcESaIcEE5c_strEv(ptr noundef nonnull align 8 dereferenceable(32) %5) #23, !noalias !110
  %21 = call noundef i64 @_ZNKSt7__cxx1112basic_stringIcSt11char_traitsIcESaIcEE6lengthEv(ptr noundef nonnull align 8 dereferenceable(32) %5) #23, !noalias !110
  invoke void @_ZNSt7__cxx1112basic_stringIcSt11char_traitsIcESaIcEEC1EPKcmRKS3_(ptr noundef nonnull align 8 dereferenceable(32) %4, ptr noundef %20, i64 noundef %21, ptr noundef nonnull align 1 dereferenceable(1) %3)
          to label %24 unwind label %22

22:                                               ; preds = %_ZNSt10filesystem7__cxx114path6appendIA6_cEERNSt9enable_ifIX13__is_path_srcIT_EES1_E4typeERKS5_.exit
  %23 = landingpad { ptr, i32 }
          cleanup
  call void @_ZNSaIcED1Ev(ptr noundef nonnull align 1 dereferenceable(1) %3) #23
  br label %.body

24:                                               ; preds = %_ZNSt10filesystem7__cxx114path6appendIA6_cEERNSt9enable_ifIX13__is_path_srcIT_EES1_E4typeERKS5_.exit
  call void @_ZNSaIcED1Ev(ptr noundef nonnull align 1 dereferenceable(1) %3) #23
  call void @llvm.lifetime.end.p0(i64 1, ptr nonnull %3)
  %25 = call noundef nonnull align 8 dereferenceable(32) ptr @_ZNSt7__cxx1112basic_stringIcSt11char_traitsIcESaIcEEaSEOS4_(ptr noundef nonnull align 8 dereferenceable(32) %15, ptr noundef nonnull align 8 dereferenceable(32) %4) #23
  call void @_ZNSt7__cxx1112basic_stringIcSt11char_traitsIcESaIcEED1Ev(ptr noundef nonnull align 8 dereferenceable(32) %4) #23
  %26 = getelementptr inbounds i8, ptr %5, i64 32
  %27 = load ptr, ptr %26, align 8
  %.not.i.i.i = icmp eq ptr %27, null
  br i1 %.not.i.i.i, label %_ZNSt10filesystem7__cxx114pathD2Ev.exit, label %28

28:                                               ; preds = %24
  call void @_ZNKSt10filesystem7__cxx114path5_List13_Impl_deleterclEPNS2_5_ImplE(ptr noundef nonnull align 1 dereferenceable(1) %26, ptr noundef nonnull %27) #23
  br label %_ZNSt10filesystem7__cxx114pathD2Ev.exit

_ZNSt10filesystem7__cxx114pathD2Ev.exit:          ; preds = %24, %28
  store ptr null, ptr %26, align 8
  call void @_ZNSt7__cxx1112basic_stringIcSt11char_traitsIcESaIcEED1Ev(ptr noundef nonnull align 8 dereferenceable(32) %5) #23
  %29 = getelementptr inbounds i8, ptr %6, i64 32
  %30 = load ptr, ptr %29, align 8
  %.not.i.i.i8 = icmp eq ptr %30, null
  br i1 %.not.i.i.i8, label %_ZNSt10filesystem7__cxx114pathD2Ev.exit9, label %31

31:                                               ; preds = %_ZNSt10filesystem7__cxx114pathD2Ev.exit
  call void @_ZNKSt10filesystem7__cxx114path5_List13_Impl_deleterclEPNS2_5_ImplE(ptr noundef nonnull align 1 dereferenceable(1) %29, ptr noundef nonnull %30) #23
  br label %_ZNSt10filesystem7__cxx114pathD2Ev.exit9

_ZNSt10filesystem7__cxx114pathD2Ev.exit9:         ; preds = %_ZNSt10filesystem7__cxx114pathD2Ev.exit, %31
  store ptr null, ptr %29, align 8
  call void @_ZNSt7__cxx1112basic_stringIcSt11char_traitsIcESaIcEED1Ev(ptr noundef nonnull align 8 dereferenceable(32) %6) #23
  %32 = getelementptr inbounds i8, ptr %7, i64 32
  %33 = load ptr, ptr %32, align 8
  %.not.i.i.i10 = icmp eq ptr %33, null
  br i1 %.not.i.i.i10, label %_ZNSt10filesystem7__cxx114pathD2Ev.exit11, label %34

34:                                               ; preds = %_ZNSt10filesystem7__cxx114pathD2Ev.exit9
  call void @_ZNKSt10filesystem7__cxx114path5_List13_Impl_deleterclEPNS2_5_ImplE(ptr noundef nonnull align 1 dereferenceable(1) %32, ptr noundef nonnull %33) #23
  br label %_ZNSt10filesystem7__cxx114pathD2Ev.exit11

_ZNSt10filesystem7__cxx114pathD2Ev.exit11:        ; preds = %_ZNSt10filesystem7__cxx114pathD2Ev.exit9, %34
  store ptr null, ptr %32, align 8
  call void @_ZNSt7__cxx1112basic_stringIcSt11char_traitsIcESaIcEED1Ev(ptr noundef nonnull align 8 dereferenceable(32) %7) #23
  br label %35

35:                                               ; preds = %14, %2, %_ZNSt10filesystem7__cxx114pathD2Ev.exit11
  ret void

36:                                               ; preds = %17
  %37 = landingpad { ptr, i32 }
          cleanup
  br label %43

38:                                               ; preds = %18
  %39 = landingpad { ptr, i32 }
          cleanup
  br label %42

40:                                               ; preds = %19
  %41 = landingpad { ptr, i32 }
          cleanup
  br label %.body

.body:                                            ; preds = %22, %40
  %eh.lpad-body = phi { ptr, i32 } [ %41, %40 ], [ %23, %22 ]
  call void @_ZNSt10filesystem7__cxx114pathD2Ev(ptr noundef nonnull align 8 dereferenceable(40) %5) #23
  br label %42

42:                                               ; preds = %.body, %38
  %.pn = phi { ptr, i32 } [ %eh.lpad-body, %.body ], [ %39, %38 ]
  call void @_ZNSt10filesystem7__cxx114pathD2Ev(ptr noundef nonnull align 8 dereferenceable(40) %6) #23
  br label %43

43:                                               ; preds = %42, %36
  %.pn.pn = phi { ptr, i32 } [ %.pn, %42 ], [ %37, %36 ]
  call void @_ZNSt10filesystem7__cxx114pathD2Ev(ptr noundef nonnull align 8 dereferenceable(40) %7) #23
  resume { ptr, i32 } %.pn.pn
}